; Function Attrs: mustprogress nounwind uwtable
define void @_ZN7Imf_3_410LatLongMap7latLongERKN9Imath_3_24Vec3IfEE(ptr dead_on_unwind noalias writable writeonly sret(%"class.Imath_3_2::Vec2") align 4 captures(none) initializes((0, 8)) %0, ptr noundef nonnull align 4 dereferenceable(12) %1) local_unnamed_addr #3 {
  %3 = getelementptr inbounds nuw i8, ptr %1, i64 8
  %4 = load float, ptr %3, align 4, !tbaa !3
  %5 = load float, ptr %1, align 4, !tbaa !8
  %6 = fmul float %5, %5
  %7 = tail call float @llvm.fmuladd.f32(float %4, float %4, float %6)
  %sqrt = tail call float @llvm.sqrt.f32(float %7)
  %8 = getelementptr inbounds nuw i8, ptr %1, i64 4
  %9 = load float, ptr %8, align 4, !tbaa !9
  %10 = tail call noundef float @llvm.fabs.f32(float %9)
  %11 = fcmp olt float %sqrt, %10
  %12 = fmul float %9, %9
  %13 = tail call float @llvm.fmuladd.f32(float %5, float %5, float %12)
  %14 = tail call noundef float @llvm.fmuladd.f32(float %4, float %4, float %13)
  %15 = fcmp olt float %14, 0x3820000000000000
  br i1 %11, label %16, label %28

16:                                               ; preds = %2
  br i1 %15, label %17, label %19, !prof !10

17:                                               ; preds = %16
  %18 = tail call noundef float @_ZNK9Imath_3_24Vec3IfE10lengthTinyEv(ptr noundef nonnull align 4 dereferenceable(12) %1) #13
  %.pre = load float, ptr %8, align 4, !tbaa !9
  br label %_ZNK9Imath_3_24Vec3IfE6lengthEv.exit

19:                                               ; preds = %16
  %sqrt.i = tail call float @llvm.sqrt.f32(float %14)
  br label %_ZNK9Imath_3_24Vec3IfE6lengthEv.exit

_ZNK9Imath_3_24Vec3IfE6lengthEv.exit:             ; preds = %17, %19
  %20 = phi float [ %.pre, %17 ], [ %9, %19 ]
  %.0.i = phi float [ %18, %17 ], [ %sqrt.i, %19 ]
  %21 = fdiv float %sqrt, %.0.i
  %22 = tail call noundef float @acosf(float noundef %21) #13, !tbaa !11
  %23 = fcmp ogt float %20, 0.000000e+00
  %24 = fcmp olt float %20, 0.000000e+00
  %25 = sitofp i1 %24 to float
  %26 = select i1 %23, float 1.000000e+00, float %25
  %27 = fmul float %22, %26
  br label %34

28:                                               ; preds = %2
  br i1 %15, label %29, label %31, !prof !10

29:                                               ; preds = %28
  %30 = tail call noundef float @_ZNK9Imath_3_24Vec3IfE10lengthTinyEv(ptr noundef nonnull align 4 dereferenceable(12) %1) #13
  br label %_ZNK9Imath_3_24Vec3IfE6lengthEv.exit20

31:                                               ; preds = %28
  %sqrt.i18 = tail call float @llvm.sqrt.f32(float %14)
  br label %_ZNK9Imath_3_24Vec3IfE6lengthEv.exit20

_ZNK9Imath_3_24Vec3IfE6lengthEv.exit20:           ; preds = %29, %31
  %.0.i19 = phi float [ %30, %29 ], [ %sqrt.i18, %31 ]
  %32 = fdiv float %9, %.0.i19
  %33 = tail call noundef float @asinf(float noundef %32) #13, !tbaa !11
  br label %34

34:                                               ; preds = %_ZNK9Imath_3_24Vec3IfE6lengthEv.exit20, %_ZNK9Imath_3_24Vec3IfE6lengthEv.exit
  %35 = phi float [ %27, %_ZNK9Imath_3_24Vec3IfE6lengthEv.exit ], [ %33, %_ZNK9Imath_3_24Vec3IfE6lengthEv.exit20 ]
  %36 = load float, ptr %3, align 4, !tbaa !3
  %37 = fcmp oeq float %36, 0.000000e+00
  %38 = load float, ptr %1, align 4
  %39 = fcmp oeq float %38, 0.000000e+00
  %or.cond = select i1 %37, i1 %39, i1 false
  br i1 %or.cond, label %42, label %40

40:                                               ; preds = %34
  %41 = tail call noundef float @atan2f(float noundef %38, float noundef %36) #13, !tbaa !11
  br label %42

42:                                               ; preds = %34, %40
  %43 = phi float [ %41, %40 ], [ 0.000000e+00, %34 ]
  store float %35, ptr %0, align 4, !tbaa !13
  %44 = getelementptr inbounds nuw i8, ptr %0, i64 4
  store float %43, ptr %44, align 4, !tbaa !15
  ret void
}